target datalayout = "e-m:e-p270:32:32-p271:32:32-p272:64:64-i64:64-i128:128-f80:128-n8:16:32:64-S128"
target triple = "x86_64-pc-linux-gnu"

%struct.lua_TValue = type { %union.Value, [1 x i32], i32 }
%union.Value = type { ptr }
%struct.lua_State = type { i8, i8, i8, i8, i8, i8, i8, ptr, ptr, ptr, ptr, ptr, ptr, ptr, ptr, i32, i32, i16, i16, i32, ptr, ptr, ptr, ptr, ptr }
%struct.CallInfo = type { ptr, ptr, ptr, ptr, i32, i32 }
%struct.Closure = type { i8, i8, i8, i8, i8, i8, i8, ptr, ptr, %union.anon.1 }
%union.anon.1 = type { %struct.anon }
%struct.anon = type { ptr, ptr, ptr, [1 x %struct.lua_TValue] }

; Function Attrs: mustprogress uwtable
define dso_local noundef ptr @_ZN4Luau7CodeGen10callPrologEP9lua_StateP10lua_TValueS4_i(ptr noundef %0, ptr noundef %1, ptr noundef %2, i32 noundef %3) #2 {
  %5 = alloca ptr, align 8
  %6 = alloca ptr, align 8
  %7 = alloca ptr, align 8
  %8 = alloca i32, align 4
  %9 = alloca ptr, align 8
  %10 = alloca ptr, align 8
  store ptr %0, ptr %5, align 8
  store ptr %1, ptr %6, align 8
  store ptr %2, ptr %7, align 8
  store i32 %3, ptr %8, align 4
  %11 = load ptr, ptr %6, align 8
  %12 = getelementptr inbounds %struct.lua_TValue, ptr %11, i32 0, i32 2
  %13 = load i32, ptr %12, align 4
  %14 = icmp eq i32 %13, 7
  %15 = xor i1 %14, true
  br i1 %15, label %16, label %21

16:                                               ; preds = %4
  %17 = load ptr, ptr %5, align 8
  %18 = load ptr, ptr %6, align 8
  call void @_Z14luaV_tryfuncTMP9lua_StateP10lua_TValue(ptr noundef %17, ptr noundef %18)
  %19 = load ptr, ptr %7, align 8
  %20 = getelementptr inbounds %struct.lua_TValue, ptr %19, i32 1
  store ptr %20, ptr %7, align 8
  br label %21

21:                                               ; preds = %16, %4
  %22 = load ptr, ptr %6, align 8
  %23 = getelementptr inbounds %struct.lua_TValue, ptr %22, i32 0, i32 0
  %24 = load ptr, ptr %23, align 8
  store ptr %24, ptr %9, align 8
  %25 = load ptr, ptr %5, align 8
  %26 = getelementptr inbounds %struct.lua_State, ptr %25, i32 0, i32 10
  %27 = load ptr, ptr %26, align 8
  %28 = load ptr, ptr %5, align 8
  %29 = getelementptr inbounds %struct.lua_State, ptr %28, i32 0, i32 13
  %30 = load ptr, ptr %29, align 8
  %31 = icmp eq ptr %27, %30
  br i1 %31, label %32, label %35

32:                                               ; preds = %21
  %33 = load ptr, ptr %5, align 8
  %34 = call noundef ptr @_Z11luaD_growCIP9lua_State(ptr noundef %33)
  br label %40

35:                                               ; preds = %21
  %36 = load ptr, ptr %5, align 8
  %37 = getelementptr inbounds %struct.lua_State, ptr %36, i32 0, i32 10
  %38 = load ptr, ptr %37, align 8
  %39 = getelementptr inbounds %struct.CallInfo, ptr %38, i32 1
  store ptr %39, ptr %37, align 8
  br label %40

40:                                               ; preds = %35, %32
  %41 = phi ptr [ %34, %32 ], [ %39, %35 ]
  store ptr %41, ptr %10, align 8
  %42 = load ptr, ptr %6, align 8
  %43 = load ptr, ptr %10, align 8
  %44 = getelementptr inbounds %struct.CallInfo, ptr %43, i32 0, i32 1
  store ptr %42, ptr %44, align 8
  %45 = load ptr, ptr %6, align 8
  %46 = getelementptr inbounds %struct.lua_TValue, ptr %45, i64 1
  %47 = load ptr, ptr %10, align 8
  %48 = getelementptr inbounds %struct.CallInfo, ptr %47, i32 0, i32 0
  store ptr %46, ptr %48, align 8
  %49 = load ptr, ptr %7, align 8
  %50 = load ptr, ptr %9, align 8
  %51 = getelementptr inbounds %struct.Closure, ptr %50, i32 0, i32 5
  %52 = load i8, ptr %51, align 1
  %53 = zext i8 %52 to i32
  %54 = sext i32 %53 to i64
  %55 = getelementptr inbounds %struct.lua_TValue, ptr %49, i64 %54
  %56 = load ptr, ptr %10, align 8
  %57 = getelementptr inbounds %struct.CallInfo, ptr %56, i32 0, i32 2
  store ptr %55, ptr %57, align 8
  %58 = load ptr, ptr %10, align 8
  %59 = getelementptr inbounds %struct.CallInfo, ptr %58, i32 0, i32 3
  store ptr null, ptr %59, align 8
  %60 = load ptr, ptr %10, align 8
  %61 = getelementptr inbounds %struct.CallInfo, ptr %60, i32 0, i32 5
  store i32 0, ptr %61, align 4
  %62 = load i32, ptr %8, align 4
  %63 = load ptr, ptr %10, align 8
  %64 = getelementptr inbounds %struct.CallInfo, ptr %63, i32 0, i32 4
  store i32 %62, ptr %64, align 8
  %65 = load ptr, ptr %10, align 8
  %66 = getelementptr inbounds %struct.CallInfo, ptr %65, i32 0, i32 0
  %67 = load ptr, ptr %66, align 8
  %68 = load ptr, ptr %5, align 8
  %69 = getelementptr inbounds %struct.lua_State, ptr %68, i32 0, i32 8
  store ptr %67, ptr %69, align 8
  %70 = load ptr, ptr %7, align 8
  %71 = load ptr, ptr %5, align 8
  %72 = getelementptr inbounds %struct.lua_State, ptr %71, i32 0, i32 7
  store ptr %70, ptr %72, align 8
  %73 = load ptr, ptr %5, align 8
  %74 = getelementptr inbounds %struct.lua_State, ptr %73, i32 0, i32 11
  %75 = load ptr, ptr %74, align 8
  %76 = load ptr, ptr %5, align 8
  %77 = getelementptr inbounds %struct.lua_State, ptr %76, i32 0, i32 7
  %78 = load ptr, ptr %77, align 8
  %79 = ptrtoint ptr %75 to i64
  %80 = ptrtoint ptr %78 to i64
  %81 = sub i64 %79, %80
  %82 = load ptr, ptr %9, align 8
  %83 = getelementptr inbounds %struct.Closure, ptr %82, i32 0, i32 5
  %84 = load i8, ptr %83, align 1
  %85 = zext i8 %84 to i32
  %86 = mul nsw i32 %85, 16
  %87 = sext i32 %86 to i64
  %88 = icmp sle i64 %81, %87
  br i1 %88, label %89, label %95

89:                                               ; preds = %40
  %90 = load ptr, ptr %5, align 8
  %91 = load ptr, ptr %9, align 8
  %92 = getelementptr inbounds %struct.Closure, ptr %91, i32 0, i32 5
  %93 = load i8, ptr %92, align 1
  %94 = zext i8 %93 to i32
  call void @_Z14luaD_growstackP9lua_Statei(ptr noundef %90, i32 noundef %94)
  br label %96

95:                                               ; preds = %40
  br label %96

96:                                               ; preds = %95, %89
  %97 = load ptr, ptr %9, align 8
  ret ptr %97
}