; Function Attrs: mustprogress uwtable
define dso_local noundef ptr @_ZN4Luau7CodeGen10callPrologEP9lua_StateP10lua_TValueS4_i(ptr noundef %0, ptr noundef %1, ptr noundef %2, i32 noundef %3) local_unnamed_addr #2 {
  %5 = getelementptr inbounds i8, ptr %1, i64 12
  %6 = load i32, ptr %5, align 4
  %.not = icmp eq i32 %6, 7
  br i1 %.not, label %9, label %7

7:                                                ; preds = %4
  tail call void @_Z14luaV_tryfuncTMP9lua_StateP10lua_TValue(ptr noundef %0, ptr noundef nonnull %1)
  %8 = getelementptr inbounds i8, ptr %2, i64 16
  br label %9

9:                                                ; preds = %7, %4
  %.0 = phi ptr [ %8, %7 ], [ %2, %4 ]
  %10 = load ptr, ptr %1, align 8
  %11 = getelementptr inbounds i8, ptr %0, i64 32
  %12 = load ptr, ptr %11, align 8
  %13 = getelementptr inbounds i8, ptr %0, i64 56
  %14 = load ptr, ptr %13, align 8
  %15 = icmp eq ptr %12, %14
  br i1 %15, label %16, label %18

16:                                               ; preds = %9
  %17 = tail call noundef ptr @_Z11luaD_growCIP9lua_State(ptr noundef nonnull %0)
  br label %20

18:                                               ; preds = %9
  %19 = getelementptr inbounds i8, ptr %12, i64 40
  store ptr %19, ptr %11, align 8
  br label %20

20:                                               ; preds = %18, %16
  %21 = phi ptr [ %17, %16 ], [ %19, %18 ]
  %22 = getelementptr inbounds i8, ptr %21, i64 8
  store ptr %1, ptr %22, align 8
  %23 = getelementptr inbounds i8, ptr %1, i64 16
  store ptr %23, ptr %21, align 8
  %24 = getelementptr inbounds i8, ptr %10, i64 5
  %25 = load i8, ptr %24, align 1
  %26 = zext i8 %25 to i64
  %27 = getelementptr inbounds %struct.lua_TValue, ptr %.0, i64 %26
  %28 = getelementptr inbounds i8, ptr %21, i64 16
  store ptr %27, ptr %28, align 8
  %29 = getelementptr inbounds i8, ptr %21, i64 24
  store ptr null, ptr %29, align 8
  %30 = getelementptr inbounds i8, ptr %21, i64 36
  store i32 0, ptr %30, align 4
  %31 = getelementptr inbounds i8, ptr %21, i64 32
  store i32 %3, ptr %31, align 8
  %32 = getelementptr inbounds i8, ptr %0, i64 16
  store ptr %23, ptr %32, align 8
  %33 = getelementptr inbounds i8, ptr %0, i64 8
  store ptr %.0, ptr %33, align 8
  %34 = getelementptr inbounds i8, ptr %0, i64 40
  %35 = load ptr, ptr %34, align 8
  %36 = ptrtoint ptr %35 to i64
  %37 = ptrtoint ptr %.0 to i64
  %38 = sub i64 %36, %37
  %39 = load i8, ptr %24, align 1
  %40 = zext i8 %39 to i32
  %41 = shl nuw nsw i32 %40, 4
  %42 = zext nneg i32 %41 to i64
  %.not30 = icmp sgt i64 %38, %42
  br i1 %.not30, label %44, label %43

43:                                               ; preds = %20
  tail call void @_Z14luaD_growstackP9lua_Statei(ptr noundef nonnull %0, i32 noundef %40)
  br label %44

44:                                               ; preds = %20, %43
  ret ptr %10
}